target datalayout = "e-m:e-p270:32:32-p271:32:32-p272:64:64-i64:64-i128:128-f80:128-n8:16:32:64-S128"
target triple = "x86_64-pc-linux-gnu"

%struct._packet_info = type { ptr, ptr, i32, i32, %struct.nstime_t, %struct.nstime_t, %struct.nstime_t, i8, ptr, ptr, ptr, ptr, %struct._address, %struct._address, %struct._address, %struct._address, %struct._address, %struct._address, i32, ptr, i8, [3 x i8], %struct.anon, i32, i32, i32, i32, ptr, i8, ptr, ptr, i16, i16, i32, i32, i16, i32, i32, ptr, ptr, ptr, i8, i8, i16, i16, i16, i32, i16, i16, ptr, ptr, ptr, ptr, ptr, i32, i32 }
%struct.nstime_t = type { i64, i32 }
%struct._address = type { i32, i32, ptr, ptr }
%struct.anon = type { i8, [3 x i8] }
%struct._proto_node = type { ptr, ptr, ptr, ptr, ptr, ptr, ptr }
%struct.field_info = type { ptr, i32, i32, i32, i32, i32, i32, ptr, ptr, ptr, i32, i32 }

@hf_docsis_encrypted_payload = internal global i32 0, align 4
@ett_addr = internal global i32 0, align 4
@hf_docsis_dst = internal global i32 0, align 4
@hf_docsis_dst_resolved = internal global i32 0, align 4
@hf_docsis_src = internal global i32 0, align 4
@hf_docsis_src_resolved = internal global i32 0, align 4
@hf_docsis_lg = internal global i32 0, align 4
@hf_docsis_ig = internal global i32 0, align 4
@.str.204 = private unnamed_addr constant [17 x i8] c" (Encrypted MMM)\00", align 1
@.str.205 = private unnamed_addr constant [37 x i8] c" (Encrypted Fragmentation MAC Frame)\00", align 1
@.str.206 = private unnamed_addr constant [13 x i8] c" (Encrypted)\00", align 1

; Function Attrs: inlinehint nounwind null_pointer_is_valid sspstrong uwtable
define internal void @proto_item_set_generated(ptr noundef %0) #3 {
  %2 = alloca ptr, align 8
  store ptr %0, ptr %2, align 8
  %3 = load ptr, ptr %2, align 8
  %4 = icmp ne ptr %3, null
  br i1 %4, label %5, label %24

5:                                                ; preds = %1
  br label %6

6:                                                ; preds = %5
  %7 = load ptr, ptr %2, align 8
  %8 = getelementptr inbounds nuw %struct._proto_node, ptr %7, i32 0, i32 5
  %9 = load ptr, ptr %8, align 8
  %10 = icmp ne ptr %9, null
  br i1 %10, label %11, label %22

11:                                               ; preds = %6
  %12 = load ptr, ptr %2, align 8
  %13 = getelementptr inbounds nuw %struct._proto_node, ptr %12, i32 0, i32 5
  %14 = load ptr, ptr %13, align 8
  %15 = getelementptr inbounds nuw %struct.field_info, ptr %14, i32 0, i32 6
  %16 = load i32, ptr %15, align 4
  %17 = or i32 %16, 2
  %18 = load ptr, ptr %2, align 8
  %19 = getelementptr inbounds nuw %struct._proto_node, ptr %18, i32 0, i32 5
  %20 = load ptr, ptr %19, align 8
  %21 = getelementptr inbounds nuw %struct.field_info, ptr %20, i32 0, i32 6
  store i32 %17, ptr %21, align 4
  br label %22

22:                                               ; preds = %11, %6
  br label %23

23:                                               ; preds = %22
  br label %24

24:                                               ; preds = %23, %1
  ret void
}

; Function Attrs: null_pointer_is_valid sspstrong uwtable
define internal void @dissect_encrypted_frame(ptr noundef %0, ptr noundef %1, ptr noundef %2, i8 noundef zeroext %3, i8 noundef zeroext %4) #0 {
  %6 = alloca ptr, align 8
  %7 = alloca ptr, align 8
  %8 = alloca ptr, align 8
  %9 = alloca i8, align 1
  %10 = alloca i8, align 1
  %11 = alloca i32, align 4
  %12 = alloca i32, align 4
  %13 = alloca ptr, align 8
  %14 = alloca ptr, align 8
  %15 = alloca ptr, align 8
  %16 = alloca ptr, align 8
  %17 = alloca ptr, align 8
  %18 = alloca ptr, align 8
  store ptr %0, ptr %6, align 8
  store ptr %1, ptr %7, align 8
  store ptr %2, ptr %8, align 8
  store i8 %3, ptr %9, align 1
  store i8 %4, ptr %10, align 1
  call void @llvm.lifetime.start.p0(i64 4, ptr %11) #4
  call void @llvm.lifetime.start.p0(i64 4, ptr %12) #4
  call void @llvm.lifetime.start.p0(i64 8, ptr %13) #4
  call void @llvm.lifetime.start.p0(i64 8, ptr %14) #4
  call void @llvm.lifetime.start.p0(i64 8, ptr %15) #4
  call void @llvm.lifetime.start.p0(i64 8, ptr %16) #4
  call void @llvm.lifetime.start.p0(i64 8, ptr %17) #4
  call void @llvm.lifetime.start.p0(i64 8, ptr %18) #4
  store ptr null, ptr %18, align 8
  %19 = load i8, ptr %9, align 1
  %20 = zext i8 %19 to i32
  %21 = icmp eq i32 %20, 3
  br i1 %21, label %22, label %44

22:                                               ; preds = %5
  %23 = load i8, ptr %10, align 1
  %24 = zext i8 %23 to i32
  %25 = icmp eq i32 %24, 1
  br i1 %25, label %26, label %30

26:                                               ; preds = %22
  %27 = load ptr, ptr %7, align 8
  %28 = getelementptr inbounds nuw %struct._packet_info, ptr %27, i32 0, i32 1
  %29 = load ptr, ptr %28, align 8
  call void @col_append_str(ptr noundef %29, i32 noundef 25, ptr noundef @.str.204)
  br label %43

30:                                               ; preds = %22
  %31 = load i8, ptr %10, align 1
  %32 = zext i8 %31 to i32
  %33 = icmp eq i32 %32, 3
  br i1 %33, label %34, label %38

34:                                               ; preds = %30
  %35 = load ptr, ptr %7, align 8
  %36 = getelementptr inbounds nuw %struct._packet_info, ptr %35, i32 0, i32 1
  %37 = load ptr, ptr %36, align 8
  call void @col_append_str(ptr noundef %37, i32 noundef 25, ptr noundef @.str.205)
  br label %42

38:                                               ; preds = %30
  %39 = load ptr, ptr %7, align 8
  %40 = getelementptr inbounds nuw %struct._packet_info, ptr %39, i32 0, i32 1
  %41 = load ptr, ptr %40, align 8
  call void @col_append_str(ptr noundef %41, i32 noundef 25, ptr noundef @.str.206)
  br label %42

42:                                               ; preds = %38, %34
  br label %43

43:                                               ; preds = %42, %26
  br label %48

44:                                               ; preds = %5
  %45 = load ptr, ptr %7, align 8
  %46 = getelementptr inbounds nuw %struct._packet_info, ptr %45, i32 0, i32 1
  %47 = load ptr, ptr %46, align 8
  call void @col_append_str(ptr noundef %47, i32 noundef 25, ptr noundef @.str.206)
  br label %48

48:                                               ; preds = %44, %43
  store i32 0, ptr %11, align 4
  %49 = load ptr, ptr %6, align 8
  %50 = load i32, ptr %11, align 4
  %51 = call i32 @tvb_captured_length_remaining(ptr noundef %49, i32 noundef %50)
  store i32 %51, ptr %12, align 4
  %52 = load i8, ptr %9, align 1
  %53 = zext i8 %52 to i32
  switch i32 %53, label %109 [
    i32 0, label %54
    i32 2, label %54
    i32 3, label %54
  ]

54:                                               ; preds = %48, %48, %48
  %55 = load ptr, ptr %6, align 8
  %56 = call ptr @tvb_get_ptr(ptr noundef %55, i32 noundef 0, i32 noundef 6)
  store ptr %56, ptr %14, align 8
  %57 = load ptr, ptr %14, align 8
  %58 = call ptr @get_ether_name(ptr noundef %57)
  store ptr %58, ptr %16, align 8
  %59 = load ptr, ptr %6, align 8
  %60 = call ptr @tvb_get_ptr(ptr noundef %59, i32 noundef 6, i32 noundef 6)
  store ptr %60, ptr %13, align 8
  %61 = load ptr, ptr %13, align 8
  %62 = call ptr @get_ether_name(ptr noundef %61)
  store ptr %62, ptr %15, align 8
  %63 = load ptr, ptr %8, align 8
  %64 = load i32, ptr @hf_docsis_dst, align 4
  %65 = load ptr, ptr %6, align 8
  %66 = load ptr, ptr %14, align 8
  %67 = call ptr @proto_tree_add_ether(ptr noundef %63, i32 noundef %64, ptr noundef %65, i32 noundef 0, i32 noundef 6, ptr noundef %66)
  store ptr %67, ptr %17, align 8
  %68 = load ptr, ptr %17, align 8
  %69 = load i32, ptr @ett_addr, align 4
  %70 = call ptr @proto_item_add_subtree(ptr noundef %68, i32 noundef %69)
  store ptr %70, ptr %18, align 8
  %71 = load ptr, ptr %18, align 8
  %72 = load i32, ptr @hf_docsis_dst_resolved, align 4
  %73 = load ptr, ptr %6, align 8
  %74 = load ptr, ptr %16, align 8
  %75 = call ptr @proto_tree_add_string(ptr noundef %71, i32 noundef %72, ptr noundef %73, i32 noundef 0, i32 noundef 6, ptr noundef %74)
  store ptr %75, ptr %17, align 8
  %76 = load ptr, ptr %17, align 8
  call void @proto_item_set_generated(ptr noundef %76)
  %77 = load ptr, ptr %18, align 8
  %78 = load i32, ptr @hf_docsis_lg, align 4
  %79 = load ptr, ptr %6, align 8
  %80 = call ptr @proto_tree_add_item(ptr noundef %77, i32 noundef %78, ptr noundef %79, i32 noundef 0, i32 noundef 3, i32 noundef 0)
  %81 = load ptr, ptr %18, align 8
  %82 = load i32, ptr @hf_docsis_ig, align 4
  %83 = load ptr, ptr %6, align 8
  %84 = call ptr @proto_tree_add_item(ptr noundef %81, i32 noundef %82, ptr noundef %83, i32 noundef 0, i32 noundef 3, i32 noundef 0)
  %85 = load ptr, ptr %8, align 8
  %86 = load i32, ptr @hf_docsis_src, align 4
  %87 = load ptr, ptr %6, align 8
  %88 = load ptr, ptr %13, align 8
  %89 = call ptr @proto_tree_add_ether(ptr noundef %85, i32 noundef %86, ptr noundef %87, i32 noundef 6, i32 noundef 6, ptr noundef %88)
  store ptr %89, ptr %17, align 8
  %90 = load ptr, ptr %17, align 8
  %91 = load i32, ptr @ett_addr, align 4
  %92 = call ptr @proto_item_add_subtree(ptr noundef %90, i32 noundef %91)
  store ptr %92, ptr %18, align 8
  %93 = load ptr, ptr %18, align 8
  %94 = load i32, ptr @hf_docsis_src_resolved, align 4
  %95 = load ptr, ptr %6, align 8
  %96 = load ptr, ptr %15, align 8
  %97 = call ptr @proto_tree_add_string(ptr noundef %93, i32 noundef %94, ptr noundef %95, i32 noundef 6, i32 noundef 6, ptr noundef %96)
  store ptr %97, ptr %17, align 8
  %98 = load ptr, ptr %17, align 8
  call void @proto_item_set_generated(ptr noundef %98)
  %99 = load ptr, ptr %18, align 8
  %100 = load i32, ptr @hf_docsis_lg, align 4
  %101 = load ptr, ptr %6, align 8
  %102 = call ptr @proto_tree_add_item(ptr noundef %99, i32 noundef %100, ptr noundef %101, i32 noundef 6, i32 noundef 3, i32 noundef 0)
  %103 = load ptr, ptr %18, align 8
  %104 = load i32, ptr @hf_docsis_ig, align 4
  %105 = load ptr, ptr %6, align 8
  %106 = call ptr @proto_tree_add_item(ptr noundef %103, i32 noundef %104, ptr noundef %105, i32 noundef 6, i32 noundef 3, i32 noundef 0)
  %107 = load i32, ptr %11, align 4
  %108 = add i32 %107, 12
  store i32 %108, ptr %11, align 4
  br label %109

109:                                              ; preds = %48, %54
  %110 = load ptr, ptr %8, align 8
  %111 = load i32, ptr @hf_docsis_encrypted_payload, align 4
  %112 = load ptr, ptr %6, align 8
  %113 = load i32, ptr %11, align 4
  %114 = load i32, ptr %12, align 4
  %115 = load i32, ptr %11, align 4
  %116 = sub i32 %114, %115
  %117 = call ptr @proto_tree_add_item(ptr noundef %110, i32 noundef %111, ptr noundef %112, i32 noundef %113, i32 noundef %116, i32 noundef 0)
  call void @llvm.lifetime.end.p0(i64 8, ptr %18) #4
  call void @llvm.lifetime.end.p0(i64 8, ptr %17) #4
  call void @llvm.lifetime.end.p0(i64 8, ptr %16) #4
  call void @llvm.lifetime.end.p0(i64 8, ptr %15) #4
  call void @llvm.lifetime.end.p0(i64 8, ptr %14) #4
  call void @llvm.lifetime.end.p0(i64 8, ptr %13) #4
  call void @llvm.lifetime.end.p0(i64 4, ptr %12) #4
  call void @llvm.lifetime.end.p0(i64 4, ptr %11) #4
  ret void
}