; Function Attrs: null_pointer_is_valid sspstrong uwtable
define internal fastcc void @dissect_encrypted_frame(ptr noundef %0, ptr noundef readonly captures(none) %1, ptr noundef %2, i8 noundef zeroext range(i8 0, 4) %3, i8 noundef zeroext range(i8 0, 32) %4) unnamed_addr #0 {
  %6 = icmp eq i8 %3, 3
  %7 = getelementptr inbounds nuw i8, ptr %1, i64 8
  %8 = load ptr, ptr %7, align 8
  br i1 %6, label %.thread, label %10

.thread:                                          ; preds = %5
  %switch.selectcmp = icmp eq i8 %4, 3
  %switch.select = select i1 %switch.selectcmp, ptr @.str.205, ptr @.str.206
  %switch.selectcmp50 = icmp eq i8 %4, 1
  %switch.select51 = select i1 %switch.selectcmp50, ptr @.str.204, ptr %switch.select
  tail call void @col_append_str(ptr noundef %8, i32 noundef 25, ptr noundef nonnull %switch.select51)
  %9 = tail call i32 @tvb_captured_length_remaining(ptr noundef %0, i32 noundef 0)
  br label %12

10:                                               ; preds = %5
  tail call void @col_append_str(ptr noundef %8, i32 noundef 25, ptr noundef nonnull @.str.206)
  %11 = tail call i32 @tvb_captured_length_remaining(ptr noundef %0, i32 noundef 0)
  %switch = icmp eq i8 %3, 1
  br i1 %switch, label %52, label %12

12:                                               ; preds = %.thread, %10
  %13 = phi i32 [ %9, %.thread ], [ %11, %10 ]
  %14 = tail call ptr @tvb_get_ptr(ptr noundef %0, i32 noundef 0, i32 noundef 6)
  %15 = tail call ptr @get_ether_name(ptr noundef %14)
  %16 = tail call ptr @tvb_get_ptr(ptr noundef %0, i32 noundef 6, i32 noundef 6)
  %17 = tail call ptr @get_ether_name(ptr noundef %16)
  %18 = load i32, ptr @hf_docsis_dst, align 4
  %19 = tail call ptr @proto_tree_add_ether(ptr noundef %2, i32 noundef %18, ptr noundef %0, i32 noundef 0, i32 noundef 6, ptr noundef %14)
  %20 = load i32, ptr @ett_addr, align 4
  %21 = tail call ptr @proto_item_add_subtree(ptr noundef %19, i32 noundef %20)
  %22 = load i32, ptr @hf_docsis_dst_resolved, align 4
  %23 = tail call ptr @proto_tree_add_string(ptr noundef %21, i32 noundef %22, ptr noundef %0, i32 noundef 0, i32 noundef 6, ptr noundef %15)
  %.not.i = icmp eq ptr %23, null
  br i1 %.not.i, label %proto_item_set_generated.exit, label %24

24:                                               ; preds = %12
  %25 = getelementptr inbounds nuw i8, ptr %23, i64 40
  %26 = load ptr, ptr %25, align 8
  %.not5.i = icmp eq ptr %26, null
  br i1 %.not5.i, label %proto_item_set_generated.exit, label %27

27:                                               ; preds = %24
  %28 = getelementptr inbounds nuw i8, ptr %26, i64 28
  %29 = load i32, ptr %28, align 4
  %30 = or i32 %29, 2
  store i32 %30, ptr %28, align 4
  br label %proto_item_set_generated.exit

proto_item_set_generated.exit:                    ; preds = %12, %24, %27
  %31 = load i32, ptr @hf_docsis_lg, align 4
  %32 = tail call ptr @proto_tree_add_item(ptr noundef %21, i32 noundef %31, ptr noundef %0, i32 noundef 0, i32 noundef 3, i32 noundef 0)
  %33 = load i32, ptr @hf_docsis_ig, align 4
  %34 = tail call ptr @proto_tree_add_item(ptr noundef %21, i32 noundef %33, ptr noundef %0, i32 noundef 0, i32 noundef 3, i32 noundef 0)
  %35 = load i32, ptr @hf_docsis_src, align 4
  %36 = tail call ptr @proto_tree_add_ether(ptr noundef %2, i32 noundef %35, ptr noundef %0, i32 noundef 6, i32 noundef 6, ptr noundef %16)
  %37 = load i32, ptr @ett_addr, align 4
  %38 = tail call ptr @proto_item_add_subtree(ptr noundef %36, i32 noundef %37)
  %39 = load i32, ptr @hf_docsis_src_resolved, align 4
  %40 = tail call ptr @proto_tree_add_string(ptr noundef %38, i32 noundef %39, ptr noundef %0, i32 noundef 6, i32 noundef 6, ptr noundef %17)
  %.not.i45 = icmp eq ptr %40, null
  br i1 %.not.i45, label %proto_item_set_generated.exit47, label %41

41:                                               ; preds = %proto_item_set_generated.exit
  %42 = getelementptr inbounds nuw i8, ptr %40, i64 40
  %43 = load ptr, ptr %42, align 8
  %.not5.i46 = icmp eq ptr %43, null
  br i1 %.not5.i46, label %proto_item_set_generated.exit47, label %44

44:                                               ; preds = %41
  %45 = getelementptr inbounds nuw i8, ptr %43, i64 28
  %46 = load i32, ptr %45, align 4
  %47 = or i32 %46, 2
  store i32 %47, ptr %45, align 4
  br label %proto_item_set_generated.exit47

proto_item_set_generated.exit47:                  ; preds = %proto_item_set_generated.exit, %41, %44
  %48 = load i32, ptr @hf_docsis_lg, align 4
  %49 = tail call ptr @proto_tree_add_item(ptr noundef %38, i32 noundef %48, ptr noundef %0, i32 noundef 6, i32 noundef 3, i32 noundef 0)
  %50 = load i32, ptr @hf_docsis_ig, align 4
  %51 = tail call ptr @proto_tree_add_item(ptr noundef %38, i32 noundef %50, ptr noundef %0, i32 noundef 6, i32 noundef 3, i32 noundef 0)
  br label %52

52:                                               ; preds = %10, %proto_item_set_generated.exit47
  %53 = phi i32 [ %11, %10 ], [ %13, %proto_item_set_generated.exit47 ]
  %.0 = phi i32 [ 0, %10 ], [ 12, %proto_item_set_generated.exit47 ]
  %54 = load i32, ptr @hf_docsis_encrypted_payload, align 4
  %55 = sub i32 %53, %.0
  %56 = tail call ptr @proto_tree_add_item(ptr noundef %2, i32 noundef %54, ptr noundef %0, i32 noundef %.0, i32 noundef %55, i32 noundef 0)
  ret void
}